target datalayout = "e-m:e-p270:32:32-p271:32:32-p272:64:64-i64:64-i128:128-f80:128-n8:16:32:64-S128"
target triple = "x86_64-pc-linux-gnu"

%"struct.(anonymous namespace)::COEFS" = type { float, float, float, float }
%struct.PJ_LP = type { double, double }
%struct.PJ_XY = type { double, double }

; Function Attrs: mustprogress nounwind uwtable
define linkonce_odr noundef zeroext i1 @_ZSt5isnand(double noundef %0) #1 comdat {
  %2 = alloca double, align 8
  store double %0, ptr %2, align 8
  %3 = load double, ptr %2, align 8
  %4 = call i1 @llvm.is.fpclass.f64(double %3, i32 3)
  ret i1 %4
}

; Function Attrs: mustprogress uwtable
define internal { double, double } @_ZL15robin_s_forward5PJ_LPP8PJconsts(double %0, double %1, ptr noundef %2) #0 {
  %4 = alloca %struct.PJ_XY, align 8
  %5 = alloca %struct.PJ_LP, align 8
  %6 = alloca ptr, align 8
  %7 = alloca i64, align 8
  %8 = alloca double, align 8
  %9 = getelementptr inbounds { double, double }, ptr %5, i32 0, i32 0
  store double %0, ptr %9, align 8
  %10 = getelementptr inbounds { double, double }, ptr %5, i32 0, i32 1
  store double %1, ptr %10, align 8
  store ptr %2, ptr %6, align 8
  call void @llvm.memset.p0.i64(ptr align 8 %4, i8 0, i64 16, i1 false)
  %11 = getelementptr inbounds %struct.PJ_LP, ptr %5, i32 0, i32 1
  %12 = load double, ptr %11, align 8
  %13 = call double @llvm.fabs.f64(double %12)
  store double %13, ptr %8, align 8
  %14 = getelementptr inbounds %struct.PJ_LP, ptr %5, i32 0, i32 1
  %15 = load double, ptr %14, align 8
  %16 = call noundef zeroext i1 @_ZSt5isnand(double noundef %15)
  br i1 %16, label %17, label %18

17:                                               ; preds = %3
  br label %23

18:                                               ; preds = %3
  %19 = load double, ptr %8, align 8
  %20 = call double @llvm.fmuladd.f64(double %19, double 0x4026EB167B830193, double 1.000000e-15)
  %21 = call double @llvm.floor.f64(double %20)
  %22 = call i64 @lround(double noundef %21) #7
  br label %23

23:                                               ; preds = %18, %17
  %24 = phi i64 [ -1, %17 ], [ %22, %18 ]
  store i64 %24, ptr %7, align 8
  %25 = load i64, ptr %7, align 8
  %26 = icmp slt i64 %25, 0
  br i1 %26, label %27, label %30

27:                                               ; preds = %23
  %28 = load ptr, ptr %6, align 8
  %29 = call i32 @proj_errno_set(ptr noundef %28, i32 noundef 2050)
  br label %108

30:                                               ; preds = %23
  %31 = load i64, ptr %7, align 8
  %32 = icmp sge i64 %31, 18
  br i1 %32, label %33, label %34

33:                                               ; preds = %30
  store i64 18, ptr %7, align 8
  br label %34

34:                                               ; preds = %33, %30
  %35 = load double, ptr %8, align 8
  %36 = load i64, ptr %7, align 8
  %37 = sitofp i64 %36 to double
  %38 = call double @llvm.fmuladd.f64(double 0xBFB657184AE74487, double %37, double %35)
  %39 = fmul double 0x404CA5DC1A63C1F8, %38
  store double %39, ptr %8, align 8
  %40 = load i64, ptr %7, align 8
  %41 = getelementptr inbounds [19 x %"struct.(anonymous namespace)::COEFS"], ptr @_ZL1X, i64 0, i64 %40
  %42 = getelementptr inbounds %"struct.(anonymous namespace)::COEFS", ptr %41, i32 0, i32 0
  %43 = load float, ptr %42, align 16
  %44 = fpext float %43 to double
  %45 = load double, ptr %8, align 8
  %46 = load i64, ptr %7, align 8
  %47 = getelementptr inbounds [19 x %"struct.(anonymous namespace)::COEFS"], ptr @_ZL1X, i64 0, i64 %46
  %48 = getelementptr inbounds %"struct.(anonymous namespace)::COEFS", ptr %47, i32 0, i32 1
  %49 = load float, ptr %48, align 4
  %50 = fpext float %49 to double
  %51 = load double, ptr %8, align 8
  %52 = load i64, ptr %7, align 8
  %53 = getelementptr inbounds [19 x %"struct.(anonymous namespace)::COEFS"], ptr @_ZL1X, i64 0, i64 %52
  %54 = getelementptr inbounds %"struct.(anonymous namespace)::COEFS", ptr %53, i32 0, i32 2
  %55 = load float, ptr %54, align 8
  %56 = fpext float %55 to double
  %57 = load double, ptr %8, align 8
  %58 = load i64, ptr %7, align 8
  %59 = getelementptr inbounds [19 x %"struct.(anonymous namespace)::COEFS"], ptr @_ZL1X, i64 0, i64 %58
  %60 = getelementptr inbounds %"struct.(anonymous namespace)::COEFS", ptr %59, i32 0, i32 3
  %61 = load float, ptr %60, align 4
  %62 = fpext float %61 to double
  %63 = call double @llvm.fmuladd.f64(double %57, double %62, double %56)
  %64 = call double @llvm.fmuladd.f64(double %51, double %63, double %50)
  %65 = call double @llvm.fmuladd.f64(double %45, double %64, double %44)
  %66 = fmul double %65, 8.487000e-01
  %67 = getelementptr inbounds %struct.PJ_LP, ptr %5, i32 0, i32 0
  %68 = load double, ptr %67, align 8
  %69 = fmul double %66, %68
  %70 = getelementptr inbounds %struct.PJ_XY, ptr %4, i32 0, i32 0
  store double %69, ptr %70, align 8
  %71 = load i64, ptr %7, align 8
  %72 = getelementptr inbounds [19 x %"struct.(anonymous namespace)::COEFS"], ptr @_ZL1Y, i64 0, i64 %71
  %73 = getelementptr inbounds %"struct.(anonymous namespace)::COEFS", ptr %72, i32 0, i32 0
  %74 = load float, ptr %73, align 16
  %75 = fpext float %74 to double
  %76 = load double, ptr %8, align 8
  %77 = load i64, ptr %7, align 8
  %78 = getelementptr inbounds [19 x %"struct.(anonymous namespace)::COEFS"], ptr @_ZL1Y, i64 0, i64 %77
  %79 = getelementptr inbounds %"struct.(anonymous namespace)::COEFS", ptr %78, i32 0, i32 1
  %80 = load float, ptr %79, align 4
  %81 = fpext float %80 to double
  %82 = load double, ptr %8, align 8
  %83 = load i64, ptr %7, align 8
  %84 = getelementptr inbounds [19 x %"struct.(anonymous namespace)::COEFS"], ptr @_ZL1Y, i64 0, i64 %83
  %85 = getelementptr inbounds %"struct.(anonymous namespace)::COEFS", ptr %84, i32 0, i32 2
  %86 = load float, ptr %85, align 8
  %87 = fpext float %86 to double
  %88 = load double, ptr %8, align 8
  %89 = load i64, ptr %7, align 8
  %90 = getelementptr inbounds [19 x %"struct.(anonymous namespace)::COEFS"], ptr @_ZL1Y, i64 0, i64 %89
  %91 = getelementptr inbounds %"struct.(anonymous namespace)::COEFS", ptr %90, i32 0, i32 3
  %92 = load float, ptr %91, align 4
  %93 = fpext float %92 to double
  %94 = call double @llvm.fmuladd.f64(double %88, double %93, double %87)
  %95 = call double @llvm.fmuladd.f64(double %82, double %94, double %81)
  %96 = call double @llvm.fmuladd.f64(double %76, double %95, double %75)
  %97 = fmul double %96, 1.352300e+00
  %98 = getelementptr inbounds %struct.PJ_XY, ptr %4, i32 0, i32 1
  store double %97, ptr %98, align 8
  %99 = getelementptr inbounds %struct.PJ_LP, ptr %5, i32 0, i32 1
  %100 = load double, ptr %99, align 8
  %101 = fcmp olt double %100, 0.000000e+00
  br i1 %101, label %102, label %107

102:                                              ; preds = %34
  %103 = getelementptr inbounds %struct.PJ_XY, ptr %4, i32 0, i32 1
  %104 = load double, ptr %103, align 8
  %105 = fneg double %104
  %106 = getelementptr inbounds %struct.PJ_XY, ptr %4, i32 0, i32 1
  store double %105, ptr %106, align 8
  br label %107

107:                                              ; preds = %102, %34
  br label %108

108:                                              ; preds = %107, %27
  %109 = load { double, double }, ptr %4, align 8
  ret { double, double } %109
}