; Function Attrs: mustprogress uwtable
define internal { double, double } @_ZL15robin_s_forward5PJ_LPP8PJconsts(double %0, double %1, ptr noundef %2) #0 {
  %4 = tail call double @llvm.fabs.f64(double %1)
  %5 = fcmp uno double %1, 0.000000e+00
  br i1 %5, label %.thread, label %6

6:                                                ; preds = %3
  %7 = tail call double @llvm.fmuladd.f64(double %4, double 0x4026EB167B830193, double 1.000000e-15)
  %8 = tail call double @llvm.floor.f64(double %7)
  %9 = tail call i64 @lround(double noundef %8) #6
  %10 = icmp slt i64 %9, 0
  br i1 %10, label %.thread, label %12

.thread:                                          ; preds = %3, %6
  %11 = tail call i32 @proj_errno_set(ptr noundef %2, i32 noundef 2050)
  br label %53

12:                                               ; preds = %6
  %13 = tail call i64 @llvm.umin.i64(i64 %9, i64 18)
  %14 = uitofp nneg i64 %13 to double
  %15 = tail call double @llvm.fmuladd.f64(double %14, double 0xBFB657184AE74487, double %4)
  %16 = fmul double %15, 0x404CA5DC1A63C1F8
  %17 = getelementptr inbounds [19 x %"struct.(anonymous namespace)::COEFS"], ptr @_ZL1X, i64 0, i64 %13
  %18 = load float, ptr %17, align 16
  %19 = fpext float %18 to double
  %20 = getelementptr inbounds i8, ptr %17, i64 4
  %21 = load float, ptr %20, align 4
  %22 = fpext float %21 to double
  %23 = getelementptr inbounds i8, ptr %17, i64 8
  %24 = load float, ptr %23, align 8
  %25 = fpext float %24 to double
  %26 = getelementptr inbounds i8, ptr %17, i64 12
  %27 = load float, ptr %26, align 4
  %28 = fpext float %27 to double
  %29 = tail call double @llvm.fmuladd.f64(double %16, double %28, double %25)
  %30 = tail call double @llvm.fmuladd.f64(double %16, double %29, double %22)
  %31 = tail call double @llvm.fmuladd.f64(double %16, double %30, double %19)
  %32 = fmul double %31, 8.487000e-01
  %33 = fmul double %32, %0
  %34 = getelementptr inbounds [19 x %"struct.(anonymous namespace)::COEFS"], ptr @_ZL1Y, i64 0, i64 %13
  %35 = load float, ptr %34, align 16
  %36 = fpext float %35 to double
  %37 = getelementptr inbounds i8, ptr %34, i64 4
  %38 = load float, ptr %37, align 4
  %39 = fpext float %38 to double
  %40 = getelementptr inbounds i8, ptr %34, i64 8
  %41 = load float, ptr %40, align 8
  %42 = fpext float %41 to double
  %43 = getelementptr inbounds i8, ptr %34, i64 12
  %44 = load float, ptr %43, align 4
  %45 = fpext float %44 to double
  %46 = tail call double @llvm.fmuladd.f64(double %16, double %45, double %42)
  %47 = tail call double @llvm.fmuladd.f64(double %16, double %46, double %39)
  %48 = tail call double @llvm.fmuladd.f64(double %16, double %47, double %36)
  %49 = fmul double %48, 1.352300e+00
  %50 = fcmp olt double %1, 0.000000e+00
  br i1 %50, label %51, label %53

51:                                               ; preds = %12
  %52 = fneg double %49
  br label %53

53:                                               ; preds = %12, %51, %.thread
  %.sroa.3.0 = phi double [ 0.000000e+00, %.thread ], [ %52, %51 ], [ %49, %12 ]
  %.sroa.021.0 = phi double [ 0.000000e+00, %.thread ], [ %33, %51 ], [ %33, %12 ]
  %.fca.0.insert = insertvalue { double, double } poison, double %.sroa.021.0, 0
  %.fca.1.insert = insertvalue { double, double } %.fca.0.insert, double %.sroa.3.0, 1
  ret { double, double } %.fca.1.insert
}